target datalayout = "e-m:e-p270:32:32-p271:32:32-p272:64:64-i64:64-i128:128-f80:128-n8:16:32:64-S128"
target triple = "x86_64-pc-linux-gnu"

%"class.marisa::Keyset" = type { %"class.marisa::scoped_array", i64, i64, %"class.marisa::scoped_array", i64, i64, %"class.marisa::scoped_array.0", i64, i64, ptr, i64, i64, i64 }
%"class.marisa::scoped_array" = type { ptr }
%"class.marisa::scoped_array.0" = type { ptr }
%"class.marisa::scoped_array.2" = type { ptr }

; Function Attrs: mustprogress nounwind uwtable
define linkonce_odr noundef ptr @_ZNK6marisa12scoped_arrayIcE3getEv(ptr noundef nonnull align 8 dereferenceable(8) %0) #1 comdat align 2 {
  %2 = alloca ptr, align 8
  store ptr %0, ptr %2, align 8
  %3 = load ptr, ptr %2, align 8
  %4 = getelementptr inbounds %"class.marisa::scoped_array.2", ptr %3, i32 0, i32 0
  %5 = load ptr, ptr %4, align 8
  ret ptr %5
}

; Function Attrs: mustprogress nounwind uwtable
define linkonce_odr noundef nonnull align 8 dereferenceable(8) ptr @_ZNK6marisa12scoped_arrayINS0_IcEEEixEm(ptr noundef nonnull align 8 dereferenceable(8) %0, i64 noundef %1) #1 comdat align 2 {
  %3 = alloca ptr, align 8
  %4 = alloca i64, align 8
  store ptr %0, ptr %3, align 8
  store i64 %1, ptr %4, align 8
  %5 = load ptr, ptr %3, align 8
  %6 = getelementptr inbounds %"class.marisa::scoped_array", ptr %5, i32 0, i32 0
  %7 = load ptr, ptr %6, align 8
  %8 = load i64, ptr %4, align 8
  %9 = getelementptr inbounds %"class.marisa::scoped_array.2", ptr %7, i64 %8
  ret ptr %9
}

; Function Attrs: mustprogress uwtable
define noundef ptr @_ZN6marisa6Keyset7reserveEm(ptr noundef nonnull align 8 dereferenceable(104) %0, i64 noundef %1) #0 align 2 {
  %3 = alloca ptr, align 8
  %4 = alloca ptr, align 8
  %5 = alloca i64, align 8
  store ptr %0, ptr %4, align 8
  store i64 %1, ptr %5, align 8
  %6 = load ptr, ptr %4, align 8
  %7 = getelementptr inbounds %"class.marisa::Keyset", ptr %6, i32 0, i32 11
  %8 = load i64, ptr %7, align 8
  %9 = udiv i64 %8, 256
  %10 = getelementptr inbounds %"class.marisa::Keyset", ptr %6, i32 0, i32 7
  %11 = load i64, ptr %10, align 8
  %12 = icmp eq i64 %9, %11
  br i1 %12, label %13, label %14

13:                                               ; preds = %2
  call void @_ZN6marisa6Keyset16append_key_blockEv(ptr noundef nonnull align 8 dereferenceable(104) %6)
  br label %14

14:                                               ; preds = %13, %2
  %15 = load i64, ptr %5, align 8
  %16 = icmp ugt i64 %15, 1024
  br i1 %16, label %17, label %25

17:                                               ; preds = %14
  %18 = load i64, ptr %5, align 8
  call void @_ZN6marisa6Keyset18append_extra_blockEm(ptr noundef nonnull align 8 dereferenceable(104) %6, i64 noundef %18)
  %19 = getelementptr inbounds %"class.marisa::Keyset", ptr %6, i32 0, i32 3
  %20 = getelementptr inbounds %"class.marisa::Keyset", ptr %6, i32 0, i32 4
  %21 = load i64, ptr %20, align 8
  %22 = sub i64 %21, 1
  %23 = call noundef nonnull align 8 dereferenceable(8) ptr @_ZNK6marisa12scoped_arrayINS0_IcEEEixEm(ptr noundef nonnull align 8 dereferenceable(8) %19, i64 noundef %22)
  %24 = call noundef ptr @_ZNK6marisa12scoped_arrayIcE3getEv(ptr noundef nonnull align 8 dereferenceable(8) %23)
  store ptr %24, ptr %3, align 8
  br label %45

25:                                               ; preds = %14
  %26 = load i64, ptr %5, align 8
  %27 = getelementptr inbounds %"class.marisa::Keyset", ptr %6, i32 0, i32 10
  %28 = load i64, ptr %27, align 8
  %29 = icmp ugt i64 %26, %28
  br i1 %29, label %30, label %31

30:                                               ; preds = %25
  call void @_ZN6marisa6Keyset17append_base_blockEv(ptr noundef nonnull align 8 dereferenceable(104) %6)
  br label %31

31:                                               ; preds = %30, %25
  %32 = load i64, ptr %5, align 8
  %33 = getelementptr inbounds %"class.marisa::Keyset", ptr %6, i32 0, i32 9
  %34 = load ptr, ptr %33, align 8
  %35 = getelementptr inbounds i8, ptr %34, i64 %32
  store ptr %35, ptr %33, align 8
  %36 = load i64, ptr %5, align 8
  %37 = getelementptr inbounds %"class.marisa::Keyset", ptr %6, i32 0, i32 10
  %38 = load i64, ptr %37, align 8
  %39 = sub i64 %38, %36
  store i64 %39, ptr %37, align 8
  %40 = getelementptr inbounds %"class.marisa::Keyset", ptr %6, i32 0, i32 9
  %41 = load ptr, ptr %40, align 8
  %42 = load i64, ptr %5, align 8
  %43 = sub i64 0, %42
  %44 = getelementptr inbounds i8, ptr %41, i64 %43
  store ptr %44, ptr %3, align 8
  br label %45

45:                                               ; preds = %31, %17
  %46 = load ptr, ptr %3, align 8
  ret ptr %46
}