; Function Attrs: mustprogress uwtable
define noundef ptr @_ZN6marisa6Keyset7reserveEm(ptr nocapture noundef nonnull align 8 dereferenceable(104) %0, i64 noundef %1) local_unnamed_addr #2 align 2 {
  %3 = getelementptr inbounds i8, ptr %0, i64 88
  %4 = load i64, ptr %3, align 8
  %5 = lshr i64 %4, 8
  %6 = getelementptr inbounds i8, ptr %0, i64 56
  %7 = load i64, ptr %6, align 8
  %8 = icmp eq i64 %5, %7
  br i1 %8, label %9, label %10

9:                                                ; preds = %2
  tail call void @_ZN6marisa6Keyset16append_key_blockEv(ptr noundef nonnull align 8 dereferenceable(104) %0)
  br label %10

10:                                               ; preds = %9, %2
  %11 = icmp ugt i64 %1, 1024
  br i1 %11, label %12, label %20

12:                                               ; preds = %10
  tail call void @_ZN6marisa6Keyset18append_extra_blockEm(ptr noundef nonnull align 8 dereferenceable(104) %0, i64 noundef %1)
  %13 = getelementptr inbounds i8, ptr %0, i64 24
  %14 = getelementptr inbounds i8, ptr %0, i64 32
  %15 = load i64, ptr %14, align 8
  %16 = load ptr, ptr %13, align 8
  %17 = getelementptr %"class.marisa::scoped_array.2", ptr %16, i64 %15
  %18 = getelementptr i8, ptr %17, i64 -8
  %19 = load ptr, ptr %18, align 8
  br label %31

20:                                               ; preds = %10
  %21 = getelementptr inbounds i8, ptr %0, i64 80
  %22 = load i64, ptr %21, align 8
  %23 = icmp ult i64 %22, %1
  br i1 %23, label %24, label %25

24:                                               ; preds = %20
  tail call void @_ZN6marisa6Keyset17append_base_blockEv(ptr noundef nonnull align 8 dereferenceable(104) %0)
  %.pre = load i64, ptr %21, align 8
  br label %25

25:                                               ; preds = %24, %20
  %26 = phi i64 [ %.pre, %24 ], [ %22, %20 ]
  %27 = getelementptr inbounds i8, ptr %0, i64 72
  %28 = load ptr, ptr %27, align 8
  %29 = getelementptr inbounds i8, ptr %28, i64 %1
  store ptr %29, ptr %27, align 8
  %30 = sub i64 %26, %1
  store i64 %30, ptr %21, align 8
  br label %31

31:                                               ; preds = %25, %12
  %.0 = phi ptr [ %19, %12 ], [ %28, %25 ]
  ret ptr %.0
}